target datalayout = "e-m:e-p270:32:32-p271:32:32-p272:64:64-i64:64-i128:128-f80:128-n8:16:32:64-S128"
target triple = "x86_64-pc-linux-gnu"

%struct.alts_iovec_record_protocol = type { ptr, ptr, i64, i8, i8 }

; Function Attrs: mustprogress nounwind uwtable
define noundef i64 @_Z52alts_iovec_record_protocol_max_unprotected_data_sizePK26alts_iovec_record_protocolm(ptr noundef %0, i64 noundef %1) #0 {
  %3 = alloca i64, align 8
  %4 = alloca ptr, align 8
  %5 = alloca i64, align 8
  %6 = alloca i64, align 8
  %7 = alloca i32, align 4
  store ptr %0, ptr %4, align 8, !tbaa !3
  store i64 %1, ptr %5, align 8, !tbaa !14
  %8 = load ptr, ptr %4, align 8, !tbaa !3
  %9 = icmp eq ptr %8, null
  br i1 %9, label %10, label %11

10:                                               ; preds = %2
  store i64 0, ptr %3, align 8
  br label %25

11:                                               ; preds = %2
  call void @llvm.lifetime.start.p0(i64 8, ptr %6) #8
  %12 = load ptr, ptr %4, align 8, !tbaa !3
  %13 = getelementptr inbounds nuw %struct.alts_iovec_record_protocol, ptr %12, i32 0, i32 2
  %14 = load i64, ptr %13, align 8, !tbaa !8
  %15 = add i64 4, %14
  store i64 %15, ptr %6, align 8, !tbaa !14
  %16 = load i64, ptr %5, align 8, !tbaa !14
  %17 = load i64, ptr %6, align 8, !tbaa !14
  %18 = icmp ule i64 %16, %17
  br i1 %18, label %19, label %20

19:                                               ; preds = %11
  store i64 0, ptr %3, align 8
  store i32 1, ptr %7, align 4
  br label %24

20:                                               ; preds = %11
  %21 = load i64, ptr %5, align 8, !tbaa !14
  %22 = load i64, ptr %6, align 8, !tbaa !14
  %23 = sub i64 %21, %22
  store i64 %23, ptr %3, align 8
  store i32 1, ptr %7, align 4
  br label %24

24:                                               ; preds = %20, %19
  call void @llvm.lifetime.end.p0(i64 8, ptr %6) #8
  br label %25

25:                                               ; preds = %24, %10
  %26 = load i64, ptr %3, align 8
  ret i64 %26
}