; Function Attrs: mustprogress nofree norecurse nosync nounwind willreturn memory(argmem: read) uwtable
define noundef i64 @_Z52alts_iovec_record_protocol_max_unprotected_data_sizePK26alts_iovec_record_protocolm(ptr noundef readonly %0, i64 noundef %1) local_unnamed_addr #1 {
  %3 = icmp eq ptr %0, null
  br i1 %3, label %8, label %4

4:                                                ; preds = %2
  %5 = getelementptr inbounds nuw i8, ptr %0, i64 16
  %6 = load i64, ptr %5, align 8, !tbaa !3
  %7 = add i64 %6, 4
  %.1 = tail call i64 @llvm.usub.sat.i64(i64 %1, i64 %7)
  br label %8

8:                                                ; preds = %2, %4
  %.0 = phi i64 [ %.1, %4 ], [ 0, %2 ]
  ret i64 %.0
}